target datalayout = "e-m:e-p270:32:32-p271:32:32-p272:64:64-i64:64-i128:128-f80:128-n8:16:32:64-S128"
target triple = "x86_64-pc-linux-gnu"

%struct.expert_field = type { i32, i32 }
%struct._packet_info = type { ptr, ptr, i32, i32, %struct.nstime_t, %struct.nstime_t, %struct.nstime_t, i32, ptr, ptr, ptr, ptr, %struct._address, %struct._address, %struct._address, %struct._address, %struct._address, %struct._address, i32, ptr, i32, %struct.anon, i32, i32, i32, i32, ptr, i32, ptr, ptr, i16, i16, i32, i32, i16, i32, i32, ptr, ptr, ptr, i8, i8, i16, i16, i16, i32, i16, i16, ptr, ptr, ptr, ptr, ptr, i32 }
%struct.nstime_t = type { i64, i32 }
%struct._address = type { i32, i32, ptr, ptr }
%struct.anon = type { i8, [3 x i8] }

@hf_tcp_option_kind = internal global i32 0, align 4
@hf_tcp_option_len = internal global i32 0, align 4
@hf_tcp_option_exp_data = internal global i32 0, align 4
@hf_tcp_option_exp_exid = internal global i32 0, align 4
@hf_tcp_option_tarr_rate = internal global i32 0, align 4
@hf_tcp_option_tarr_reserved = internal global i32 0, align 4
@ett_tcp_option_exp = internal global i32 0, align 4
@ei_tcp_opt_len_invalid = internal global %struct.expert_field zeroinitializer, align 4
@proto_tcp_option_exp = internal global i32 0, align 4
@.str.717 = private unnamed_addr constant [8 x i8] c"Unknown\00", align 1
@tcp_exp_options_rfc6994 = internal global i32 1, align 4
@.str.799 = private unnamed_addr constant [2 x i8] c" \00", align 1
@.str.1024 = private unnamed_addr constant [5 x i8] c": %s\00", align 1
@.str.1055 = private unnamed_addr constant [45 x i8] c"option length should be 4 or 5 instead of %d\00", align 1
@.str.1056 = private unnamed_addr constant [54 x i8] c"option length should be 4, 7, 10, or 13 instead of %d\00", align 1
@.str.1057 = private unnamed_addr constant [15 x i8] c": Accurate ECN\00", align 1
@.str.1058 = private unnamed_addr constant [5 x i8] c"ExID\00", align 1
@.str.1059 = private unnamed_addr constant [32 x i8] c"option length %u smaller than 4\00", align 1
@.str.1060 = private unnamed_addr constant [4 x i8] c"Exp\00", align 1
@.str.1061 = private unnamed_addr constant [6 x i8] c" TARR\00", align 1
@.str.1062 = private unnamed_addr constant [5 x i8] c"TARR\00", align 1
@.str.1063 = private unnamed_addr constant [4 x i8] c" %u\00", align 1
@.str.1064 = private unnamed_addr constant [7 x i8] c" %s=%X\00", align 1

; Function Attrs: nounwind uwtable
define internal void @tcp_info_append_uint(ptr noundef %0, ptr noundef %1, i32 noundef %2) #0 {
  %4 = alloca ptr, align 8
  %5 = alloca ptr, align 8
  %6 = alloca i32, align 4
  store ptr %0, ptr %4, align 8
  store ptr %1, ptr %5, align 8
  store i32 %2, ptr %6, align 4
  %7 = load ptr, ptr %4, align 8
  %8 = getelementptr inbounds %struct._packet_info, ptr %7, i32 0, i32 1
  %9 = load ptr, ptr %8, align 8
  %10 = load ptr, ptr %5, align 8
  %11 = load i32, ptr %6, align 4
  call void @col_append_str_uint(ptr noundef %9, i32 noundef 25, ptr noundef %10, i32 noundef %11, ptr noundef @.str.799)
  ret void
}

; Function Attrs: nounwind uwtable
define internal void @tcp_info_append_hex_uint(ptr noundef %0, ptr noundef %1, i32 noundef %2) #0 {
  %4 = alloca ptr, align 8
  %5 = alloca ptr, align 8
  %6 = alloca i32, align 4
  store ptr %0, ptr %4, align 8
  store ptr %1, ptr %5, align 8
  store i32 %2, ptr %6, align 4
  %7 = load ptr, ptr %4, align 8
  %8 = getelementptr inbounds %struct._packet_info, ptr %7, i32 0, i32 1
  %9 = load ptr, ptr %8, align 8
  %10 = load ptr, ptr %5, align 8
  %11 = load i32, ptr %6, align 4
  call void (ptr, i32, ptr, ...) @col_append_fstr(ptr noundef %9, i32 noundef 25, ptr noundef @.str.1064, ptr noundef %10, i32 noundef %11)
  ret void
}

; Function Attrs: nounwind uwtable
define internal void @dissect_tcpopt_tarr_data(ptr noundef %0, i32 noundef %1, i32 noundef %2, ptr noundef %3, ptr noundef %4, ptr noundef %5, ptr noundef %6) #0 {
  %8 = alloca ptr, align 8
  %9 = alloca i32, align 4
  %10 = alloca i32, align 4
  %11 = alloca ptr, align 8
  %12 = alloca ptr, align 8
  %13 = alloca ptr, align 8
  %14 = alloca ptr, align 8
  %15 = alloca i8, align 1
  store ptr %0, ptr %8, align 8
  store i32 %1, ptr %9, align 4
  store i32 %2, ptr %10, align 4
  store ptr %3, ptr %11, align 8
  store ptr %4, ptr %12, align 8
  store ptr %5, ptr %13, align 8
  store ptr %6, ptr %14, align 8
  %16 = load i32, ptr %10, align 4
  switch i32 %16, label %45 [
    i32 0, label %17
    i32 1, label %21
  ]

17:                                               ; preds = %7
  %18 = load ptr, ptr %11, align 8
  %19 = getelementptr inbounds %struct._packet_info, ptr %18, i32 0, i32 1
  %20 = load ptr, ptr %19, align 8
  call void @col_append_str(ptr noundef %20, i32 noundef 25, ptr noundef @.str.1061)
  br label %45

21:                                               ; preds = %7
  %22 = load ptr, ptr %8, align 8
  %23 = load i32, ptr %9, align 4
  %24 = call zeroext i8 @tvb_get_guint8(ptr noundef %22, i32 noundef %23)
  %25 = zext i8 %24 to i32
  %26 = and i32 %25, 254
  %27 = ashr i32 %26, 1
  %28 = trunc i32 %27 to i8
  store i8 %28, ptr %15, align 1
  %29 = load ptr, ptr %12, align 8
  %30 = load i32, ptr @hf_tcp_option_tarr_rate, align 4
  %31 = load ptr, ptr %8, align 8
  %32 = load i32, ptr %9, align 4
  %33 = call ptr @proto_tree_add_item(ptr noundef %29, i32 noundef %30, ptr noundef %31, i32 noundef %32, i32 noundef 1, i32 noundef 0)
  %34 = load ptr, ptr %12, align 8
  %35 = load i32, ptr @hf_tcp_option_tarr_reserved, align 4
  %36 = load ptr, ptr %8, align 8
  %37 = load i32, ptr %9, align 4
  %38 = call ptr @proto_tree_add_item(ptr noundef %34, i32 noundef %35, ptr noundef %36, i32 noundef %37, i32 noundef 1, i32 noundef 0)
  %39 = load ptr, ptr %11, align 8
  %40 = load i8, ptr %15, align 1
  %41 = zext i8 %40 to i32
  call void @tcp_info_append_uint(ptr noundef %39, ptr noundef @.str.1062, i32 noundef %41)
  %42 = load ptr, ptr %13, align 8
  %43 = load i8, ptr %15, align 1
  %44 = zext i8 %43 to i32
  call void (ptr, ptr, ...) @proto_item_append_text(ptr noundef %42, ptr noundef @.str.1063, i32 noundef %44)
  br label %45

45:                                               ; preds = %21, %17, %7
  ret void
}

; Function Attrs: nounwind uwtable
define internal i32 @dissect_tcpopt_exp(ptr noundef %0, ptr noundef %1, ptr noundef %2, ptr noundef %3) #0 {
  %5 = alloca ptr, align 8
  %6 = alloca ptr, align 8
  %7 = alloca ptr, align 8
  %8 = alloca ptr, align 8
  %9 = alloca ptr, align 8
  %10 = alloca ptr, align 8
  %11 = alloca ptr, align 8
  %12 = alloca i16, align 2
  %13 = alloca i8, align 1
  %14 = alloca i32, align 4
  %15 = alloca i32, align 4
  store ptr %0, ptr %5, align 8
  store ptr %1, ptr %6, align 8
  store ptr %2, ptr %7, align 8
  store ptr %3, ptr %8, align 8
  store i32 0, ptr %14, align 4
  %16 = load ptr, ptr %5, align 8
  %17 = call i32 @tvb_reported_length(ptr noundef %16)
  store i32 %17, ptr %15, align 4
  %18 = load ptr, ptr %7, align 8
  %19 = load i32, ptr @proto_tcp_option_exp, align 4
  %20 = load ptr, ptr %5, align 8
  %21 = load i32, ptr %14, align 4
  %22 = call ptr @proto_tree_add_item(ptr noundef %18, i32 noundef %19, ptr noundef %20, i32 noundef %21, i32 noundef -1, i32 noundef 0)
  store ptr %22, ptr %9, align 8
  %23 = load ptr, ptr %9, align 8
  %24 = load i32, ptr @ett_tcp_option_exp, align 4
  %25 = call ptr @proto_item_add_subtree(ptr noundef %23, i32 noundef %24)
  store ptr %25, ptr %11, align 8
  %26 = load ptr, ptr %11, align 8
  %27 = load i32, ptr @hf_tcp_option_kind, align 4
  %28 = load ptr, ptr %5, align 8
  %29 = load i32, ptr %14, align 4
  %30 = call ptr @proto_tree_add_item(ptr noundef %26, i32 noundef %27, ptr noundef %28, i32 noundef %29, i32 noundef 1, i32 noundef 0)
  %31 = load ptr, ptr %5, align 8
  %32 = load i32, ptr %14, align 4
  %33 = call zeroext i8 @tvb_get_guint8(ptr noundef %31, i32 noundef %32)
  store i8 %33, ptr %13, align 1
  %34 = load ptr, ptr %11, align 8
  %35 = load i32, ptr @hf_tcp_option_len, align 4
  %36 = load ptr, ptr %5, align 8
  %37 = load i32, ptr %14, align 4
  %38 = add i32 %37, 1
  %39 = call ptr @proto_tree_add_item(ptr noundef %34, i32 noundef %35, ptr noundef %36, i32 noundef %38, i32 noundef 1, i32 noundef 0)
  store ptr %39, ptr %10, align 8
  %40 = load i32, ptr @tcp_exp_options_rfc6994, align 4
  %41 = icmp ne i32 %40, 0
  br i1 %41, label %42, label %149

42:                                               ; preds = %4
  %43 = load i32, ptr %15, align 4
  %44 = icmp sge i32 %43, 4
  br i1 %44, label %45, label %143

45:                                               ; preds = %42
  %46 = load ptr, ptr %5, align 8
  %47 = load i32, ptr %14, align 4
  %48 = add i32 %47, 2
  %49 = call zeroext i16 @tvb_get_ntohs(ptr noundef %46, i32 noundef %48)
  store i16 %49, ptr %12, align 2
  %50 = load ptr, ptr %11, align 8
  %51 = load i32, ptr @hf_tcp_option_exp_exid, align 4
  %52 = load ptr, ptr %5, align 8
  %53 = load i32, ptr %14, align 4
  %54 = add i32 %53, 2
  %55 = call ptr @proto_tree_add_item(ptr noundef %50, i32 noundef %51, ptr noundef %52, i32 noundef %54, i32 noundef 2, i32 noundef 0)
  %56 = load ptr, ptr %9, align 8
  %57 = load i16, ptr %12, align 2
  %58 = zext i16 %57 to i32
  %59 = call ptr @val_to_str_const(i32 noundef %58, ptr noundef @tcp_exid_vs, ptr noundef @.str.717)
  call void (ptr, ptr, ...) @proto_item_append_text(ptr noundef %56, ptr noundef @.str.1024, ptr noundef %59)
  %60 = load i16, ptr %12, align 2
  %61 = zext i16 %60 to i32
  switch i32 %61, label %126 [
    i32 172, label %62
    i32 44224, label %84
    i32 44225, label %84
    i32 63881, label %117
  ]

62:                                               ; preds = %45
  %63 = load i32, ptr %15, align 4
  %64 = icmp ne i32 %63, 4
  br i1 %64, label %65, label %73

65:                                               ; preds = %62
  %66 = load i32, ptr %15, align 4
  %67 = icmp ne i32 %66, 5
  br i1 %67, label %68, label %73

68:                                               ; preds = %65
  %69 = load ptr, ptr %6, align 8
  %70 = load ptr, ptr %10, align 8
  %71 = load i32, ptr %15, align 4
  %72 = call ptr (ptr, ptr, ptr, ptr, ...) @expert_add_info_format(ptr noundef %69, ptr noundef %70, ptr noundef @ei_tcp_opt_len_invalid, ptr noundef @.str.1055, i32 noundef %71)
  br label %83

73:                                               ; preds = %65, %62
  %74 = load ptr, ptr %5, align 8
  %75 = load i32, ptr %14, align 4
  %76 = add i32 %75, 4
  %77 = load i32, ptr %15, align 4
  %78 = sub i32 %77, 4
  %79 = load ptr, ptr %6, align 8
  %80 = load ptr, ptr %11, align 8
  %81 = load ptr, ptr %9, align 8
  %82 = load ptr, ptr %8, align 8
  call void @dissect_tcpopt_tarr_data(ptr noundef %74, i32 noundef %76, i32 noundef %78, ptr noundef %79, ptr noundef %80, ptr noundef %81, ptr noundef %82)
  br label %83

83:                                               ; preds = %73, %68
  br label %142

84:                                               ; preds = %45, %45
  %85 = load i32, ptr %15, align 4
  %86 = icmp ne i32 %85, 4
  br i1 %86, label %87, label %101

87:                                               ; preds = %84
  %88 = load i32, ptr %15, align 4
  %89 = icmp ne i32 %88, 7
  br i1 %89, label %90, label %101

90:                                               ; preds = %87
  %91 = load i32, ptr %15, align 4
  %92 = icmp ne i32 %91, 10
  br i1 %92, label %93, label %101

93:                                               ; preds = %90
  %94 = load i32, ptr %15, align 4
  %95 = icmp ne i32 %94, 13
  br i1 %95, label %96, label %101

96:                                               ; preds = %93
  %97 = load ptr, ptr %6, align 8
  %98 = load ptr, ptr %10, align 8
  %99 = load i32, ptr %15, align 4
  %100 = call ptr (ptr, ptr, ptr, ptr, ...) @expert_add_info_format(ptr noundef %97, ptr noundef %98, ptr noundef @ei_tcp_opt_len_invalid, ptr noundef @.str.1056, i32 noundef %99)
  br label %116

101:                                              ; preds = %93, %90, %87, %84
  %102 = load ptr, ptr %9, align 8
  call void (ptr, ptr, ...) @proto_item_append_text(ptr noundef %102, ptr noundef @.str.1057)
  %103 = load ptr, ptr %5, align 8
  %104 = load i32, ptr %14, align 4
  %105 = add i32 %104, 4
  %106 = load i32, ptr %15, align 4
  %107 = sub i32 %106, 4
  %108 = load i16, ptr %12, align 2
  %109 = zext i16 %108 to i32
  %110 = icmp eq i32 %109, 44224
  %111 = zext i1 %110 to i32
  %112 = load ptr, ptr %6, align 8
  %113 = load ptr, ptr %11, align 8
  %114 = load ptr, ptr %9, align 8
  %115 = load ptr, ptr %8, align 8
  call void @dissect_tcpopt_acc_ecn_data(ptr noundef %103, i32 noundef %105, i32 noundef %107, i32 noundef %111, ptr noundef %112, ptr noundef %113, ptr noundef %114, ptr noundef %115)
  br label %116

116:                                              ; preds = %101, %96
  br label %142

117:                                              ; preds = %45
  %118 = load ptr, ptr %5, align 8
  %119 = load i32, ptr %14, align 4
  %120 = add i32 %119, 2
  %121 = load i32, ptr %15, align 4
  %122 = sub i32 %121, 2
  %123 = load ptr, ptr %6, align 8
  %124 = load ptr, ptr %11, align 8
  %125 = load ptr, ptr %8, align 8
  call void @dissect_tcpopt_tfo_payload(ptr noundef %118, i32 noundef %120, i32 noundef %122, ptr noundef %123, ptr noundef %124, ptr noundef %125)
  br label %142

126:                                              ; preds = %45
  %127 = load i32, ptr %15, align 4
  %128 = icmp sgt i32 %127, 4
  br i1 %128, label %129, label %138

129:                                              ; preds = %126
  %130 = load ptr, ptr %11, align 8
  %131 = load i32, ptr @hf_tcp_option_exp_data, align 4
  %132 = load ptr, ptr %5, align 8
  %133 = load i32, ptr %14, align 4
  %134 = add i32 %133, 4
  %135 = load i32, ptr %15, align 4
  %136 = sub i32 %135, 4
  %137 = call ptr @proto_tree_add_item(ptr noundef %130, i32 noundef %131, ptr noundef %132, i32 noundef %134, i32 noundef %136, i32 noundef 0)
  br label %138

138:                                              ; preds = %129, %126
  %139 = load ptr, ptr %6, align 8
  %140 = load i16, ptr %12, align 2
  %141 = zext i16 %140 to i32
  call void @tcp_info_append_hex_uint(ptr noundef %139, ptr noundef @.str.1058, i32 noundef %141)
  br label %142

142:                                              ; preds = %138, %117, %116, %83
  br label %148

143:                                              ; preds = %42
  %144 = load ptr, ptr %6, align 8
  %145 = load ptr, ptr %10, align 8
  %146 = load i32, ptr %15, align 4
  %147 = call ptr (ptr, ptr, ptr, ptr, ...) @expert_add_info_format(ptr noundef %144, ptr noundef %145, ptr noundef @ei_tcp_opt_len_invalid, ptr noundef @.str.1059, i32 noundef %146)
  br label %148

148:                                              ; preds = %143, %142
  br label %163

149:                                              ; preds = %4
  %150 = load ptr, ptr %11, align 8
  %151 = load i32, ptr @hf_tcp_option_exp_data, align 4
  %152 = load ptr, ptr %5, align 8
  %153 = load i32, ptr %14, align 4
  %154 = add i32 %153, 2
  %155 = load i32, ptr %15, align 4
  %156 = sub i32 %155, 2
  %157 = call ptr @proto_tree_add_item(ptr noundef %150, i32 noundef %151, ptr noundef %152, i32 noundef %154, i32 noundef %156, i32 noundef 0)
  %158 = load ptr, ptr %6, align 8
  %159 = load i8, ptr %13, align 1
  %160 = zext i8 %159 to i32
  %161 = icmp eq i32 %160, 253
  %162 = select i1 %161, i32 1, i32 2
  call void @tcp_info_append_uint(ptr noundef %158, ptr noundef @.str.1060, i32 noundef %162)
  br label %163

163:                                              ; preds = %149, %148
  %164 = load ptr, ptr %5, align 8
  %165 = call i32 @tvb_captured_length(ptr noundef %164)
  ret i32 %165
}