; Function Attrs: nounwind uwtable
define internal i32 @dissect_tcpopt_exp(ptr noundef %0, ptr noundef %1, ptr noundef %2, ptr noundef readonly captures(none) %3) #0 {
  %5 = tail call i32 @tvb_reported_length(ptr noundef %0) #20
  %6 = load i32, ptr @proto_tcp_option_exp, align 4
  %7 = tail call ptr @proto_tree_add_item(ptr noundef %2, i32 noundef %6, ptr noundef %0, i32 noundef 0, i32 noundef -1, i32 noundef 0) #20
  %8 = load i32, ptr @ett_tcp_option_exp, align 4
  %9 = tail call ptr @proto_item_add_subtree(ptr noundef %7, i32 noundef %8) #20
  %10 = load i32, ptr @hf_tcp_option_kind, align 4
  %11 = tail call ptr @proto_tree_add_item(ptr noundef %9, i32 noundef %10, ptr noundef %0, i32 noundef 0, i32 noundef 1, i32 noundef 0) #20
  %12 = tail call zeroext i8 @tvb_get_guint8(ptr noundef %0, i32 noundef 0) #20
  %13 = load i32, ptr @hf_tcp_option_len, align 4
  %14 = tail call ptr @proto_tree_add_item(ptr noundef %9, i32 noundef %13, ptr noundef %0, i32 noundef 1, i32 noundef 1, i32 noundef 0) #20
  %15 = load i32, ptr @tcp_exp_options_rfc6994, align 4
  %.not = icmp eq i32 %15, 0
  br i1 %.not, label %59, label %16

16:                                               ; preds = %4
  %17 = icmp sgt i32 %5, 3
  br i1 %17, label %18, label %57

18:                                               ; preds = %16
  %19 = tail call zeroext i16 @tvb_get_ntohs(ptr noundef %0, i32 noundef 2) #20
  %20 = load i32, ptr @hf_tcp_option_exp_exid, align 4
  %21 = tail call ptr @proto_tree_add_item(ptr noundef %9, i32 noundef %20, ptr noundef %0, i32 noundef 2, i32 noundef 2, i32 noundef 0) #20
  %22 = zext i16 %19 to i32
  %23 = tail call ptr @val_to_str_const(i32 noundef %22, ptr noundef nonnull @tcp_exid_vs, ptr noundef nonnull @.str.717) #20
  tail call void (ptr, ptr, ...) @proto_item_append_text(ptr noundef %7, ptr noundef nonnull @.str.1024, ptr noundef %23) #20
  switch i16 %19, label %50 [
    i16 172, label %24
    i16 -21312, label %41
    i16 -21311, label %41
    i16 -1655, label %48
  ]

24:                                               ; preds = %18
  %25 = add nsw i32 %5, -6
  %or.cond = icmp ult i32 %25, -2
  br i1 %or.cond, label %26, label %28

26:                                               ; preds = %24
  %27 = tail call ptr (ptr, ptr, ptr, ptr, ...) @expert_add_info_format(ptr noundef %1, ptr noundef %14, ptr noundef nonnull @ei_tcp_opt_len_invalid, ptr noundef nonnull @.str.1055, i32 noundef %5) #20
  br label %dissect_tcpopt_tarr_data.exit

28:                                               ; preds = %24
  %switch = icmp eq i32 %5, 4
  br i1 %switch, label %29, label %32

29:                                               ; preds = %28
  %30 = getelementptr inbounds nuw i8, ptr %1, i64 8
  %31 = load ptr, ptr %30, align 8
  tail call void @col_append_str(ptr noundef %31, i32 noundef 25, ptr noundef nonnull @.str.1061) #20
  br label %dissect_tcpopt_tarr_data.exit

32:                                               ; preds = %28
  %33 = tail call zeroext i8 @tvb_get_guint8(ptr noundef %0, i32 noundef 4) #20
  %34 = lshr i8 %33, 1
  %35 = load i32, ptr @hf_tcp_option_tarr_rate, align 4
  %36 = tail call ptr @proto_tree_add_item(ptr noundef %9, i32 noundef %35, ptr noundef %0, i32 noundef 4, i32 noundef 1, i32 noundef 0) #20
  %37 = load i32, ptr @hf_tcp_option_tarr_reserved, align 4
  %38 = tail call ptr @proto_tree_add_item(ptr noundef %9, i32 noundef %37, ptr noundef %0, i32 noundef 4, i32 noundef 1, i32 noundef 0) #20
  %39 = zext nneg i8 %34 to i32
  %40 = getelementptr i8, ptr %1, i64 8
  %.val.i = load ptr, ptr %40, align 8
  tail call void @col_append_str_uint(ptr noundef %.val.i, i32 noundef 25, ptr noundef nonnull @.str.1062, i32 noundef %39, ptr noundef nonnull @.str.799) #20
  tail call void (ptr, ptr, ...) @proto_item_append_text(ptr noundef %7, ptr noundef nonnull @.str.1063, i32 noundef %39) #20
  br label %dissect_tcpopt_tarr_data.exit

41:                                               ; preds = %18, %18
  switch i32 %5, label %42 [
    i32 13, label %44
    i32 10, label %44
    i32 7, label %44
    i32 4, label %44
  ]

42:                                               ; preds = %41
  %43 = tail call ptr (ptr, ptr, ptr, ptr, ...) @expert_add_info_format(ptr noundef %1, ptr noundef %14, ptr noundef nonnull @ei_tcp_opt_len_invalid, ptr noundef nonnull @.str.1056, i32 noundef %5) #20
  br label %dissect_tcpopt_tarr_data.exit

44:                                               ; preds = %41, %41, %41, %41
  tail call void (ptr, ptr, ...) @proto_item_append_text(ptr noundef %7, ptr noundef nonnull @.str.1057) #20
  %45 = add nsw i32 %5, -4
  %46 = icmp eq i16 %19, -21312
  %47 = zext i1 %46 to i32
  tail call fastcc void @dissect_tcpopt_acc_ecn_data(ptr noundef %0, i32 noundef 4, i32 noundef %45, i32 noundef %47, ptr noundef %1, ptr noundef %9, ptr noundef %7)
  br label %dissect_tcpopt_tarr_data.exit

48:                                               ; preds = %18
  %49 = add nsw i32 %5, -2
  tail call fastcc void @dissect_tcpopt_tfo_payload(ptr noundef %0, i32 noundef 2, i32 noundef %49, ptr noundef %1, ptr noundef %9, ptr noundef %3)
  br label %dissect_tcpopt_tarr_data.exit

50:                                               ; preds = %18
  %.not79 = icmp eq i32 %5, 4
  br i1 %.not79, label %55, label %51

51:                                               ; preds = %50
  %52 = load i32, ptr @hf_tcp_option_exp_data, align 4
  %53 = add nsw i32 %5, -4
  %54 = tail call ptr @proto_tree_add_item(ptr noundef %9, i32 noundef %52, ptr noundef %0, i32 noundef 4, i32 noundef %53, i32 noundef 0) #20
  br label %55

55:                                               ; preds = %51, %50
  %56 = getelementptr i8, ptr %1, i64 8
  %.val80 = load ptr, ptr %56, align 8
  tail call void (ptr, i32, ptr, ...) @col_append_fstr(ptr noundef %.val80, i32 noundef 25, ptr noundef nonnull @.str.1064, ptr noundef nonnull @.str.1058, i32 noundef range(i32 0, 65536) %22) #20
  br label %dissect_tcpopt_tarr_data.exit

57:                                               ; preds = %16
  %58 = tail call ptr (ptr, ptr, ptr, ptr, ...) @expert_add_info_format(ptr noundef %1, ptr noundef %14, ptr noundef nonnull @ei_tcp_opt_len_invalid, ptr noundef nonnull @.str.1059, i32 noundef %5) #20
  br label %dissect_tcpopt_tarr_data.exit

59:                                               ; preds = %4
  %60 = load i32, ptr @hf_tcp_option_exp_data, align 4
  %61 = add i32 %5, -2
  %62 = tail call ptr @proto_tree_add_item(ptr noundef %9, i32 noundef %60, ptr noundef %0, i32 noundef 2, i32 noundef %61, i32 noundef 0) #20
  %63 = icmp eq i8 %12, -3
  %64 = select i1 %63, i32 1, i32 2
  %65 = getelementptr i8, ptr %1, i64 8
  %.val = load ptr, ptr %65, align 8
  tail call void @col_append_str_uint(ptr noundef %.val, i32 noundef 25, ptr noundef nonnull @.str.1060, i32 noundef %64, ptr noundef nonnull @.str.799) #20
  br label %dissect_tcpopt_tarr_data.exit

dissect_tcpopt_tarr_data.exit:                    ; preds = %32, %29, %57, %42, %44, %26, %55, %48, %59
  %66 = tail call i32 @tvb_captured_length(ptr noundef %0) #20
  ret i32 %66
}